(dp0
S'FB2017-05-012017-06-01'
p1
(lp2
(dp3
S'volume'
p4
F14459173.0
sS'Adj_Close'
p5
F151.53
sS'high'
p6
F152.29
sS'low'
p7
F150.3
sS'close'
p8
F151.53
sS'open'
p9
F151.75
sa(dp10
g4
F17709427.0
sg5
F151.46
sg6
F153.35
sg7
F151.09
sg8
F151.46
sg9
F152.7
sa(dp11
g4
F13145329.0
sg5
F152.38
sg6
F152.9
sg7
F151.64
sg8
F152.38
sg9
F151.97
sa(dp12
g4
F14907827.0
sg5
F152.13
sg6
F152.25
sg7
F151.15
sg8
F152.13
sg9
F152.23
sa(dp13
g4
F19780399.0
sg5
F151.96
sg6
F152.59
sg7
F149.95
sg8
F151.96
sg9
F150.3
sa(dp14
g4
F17769670.0
sg5
F150.04
sg6
F150.23
sg7
F148.42
sg8
F150.04
sg9
F148.51
sa(dp15
g4
F12665886.0
sg5
F148.07
sg6
F148.81
sg7
F147.25
sg8
F148.07
sg9
F148.52
sa(dp16
g4
F12379481.0
sg5
F148.24
sg6
F148.59
sg7
F147.69
sg8
F148.24
sg9
F148.08
sa(dp17
g4
F16101229.0
sg5
F148.06
sg6
F149.39
sg7
F147.96
sg8
F148.06
sg9
F148.45
sa(dp18
g4
F21784326.0
sg5
F147.66
sg6
F148.15
sg7
F144.51
sg8
F147.66
sg9
F144.72
sa(dp19
g4
F27908167.0
sg5
F144.85
sg6
F148.67
sg7
F144.42
sg8
F144.85
sg9
F148.0
sa(dp20
g4
F14420715.0
sg5
F149.78
sg6
F150.21
sg7
F149.03
sg8
F149.78
sg9
F150.11
sa(dp21
g4
F14909882.0
sg5
F150.19
sg6
F151.48
sg7
F149.77
sg8
F150.19
sg9
F150.17
sa(dp22
g4
F9497040.0
sg5
F150.33
sg6
F150.46
sg7
F149.63
sg8
F150.33
sg9
F150.4
sa(dp23
g4
F11623865.0
sg5
F150.04
sg6
F150.65
sg7
F149.41
sg8
F150.04
sg9
F150.31
sa(dp24
g4
F11653395.0
sg5
F150.29
sg6
F150.52
sg7
F148.86
sg8
F150.29
sg9
F150.23
sa(dp25
g4
F17325999.0
sg5
F150.48
sg6
F152.59
sg7
F150.21
sg8
F150.48
sg9
F151.49
sa(dp26
g4
F15662472.0
sg5
F151.06
sg6
F151.08
sg7
F149.74
sg8
F151.06
sg9
F150.71
sa(dp27
g4
F17051519.0
sg5
F150.24
sg6
F151.63
sg7
F149.79
sg8
F150.24
sg9
F151.45
sa(dp28
g4
F36060301.0
sg5
F150.85
sg6
F151.52
sg7
F148.72
sg8
F150.85
sg9
F150.17
sa(dp29
g4
F21755088.0
sg5
F151.8
sg6
F153.6
sg7
F151.34
sg8
F151.8
sg9
F153.6
sa(dp30
g4
F21255365.0
sg5
F152.78
sg6
F153.44
sg7
F151.66
sg8
F152.78
sg9
F153.34
sa(dp31
g4
F24669159.0
sg5
F152.46
sg6
F152.57
sg7
F151.42
sg8
F152.46
sg9
F151.74
sasS'MSFT2017-05-012017-05-31'
p32
(lp33
(dp34
S'high'
p35
F70.74
sS'Adj_Close'
p36
F69.84
sS'volume'
p37
F29538356.0
sS'low'
p38
F69.81
sS'close'
p39
F69.84
sS'open'
p40
F70.53
sa(dp41
g35
F70.41
sg36
F70.41
sg37
F16901792.0
sg38
F69.77
sg39
F70.41
sg40
F69.79
sa(dp42
g35
F70.22
sg36
F69.96
sg37
F19644260.0
sg38
F69.52
sg39
F69.96
sg40
F69.8
sa(dp43
g35
F69.88
sg36
F69.62
sg37
F21702912.0
sg38
F68.91
sg39
F69.62
sg40
F68.97
sa(dp44
g35
F68.88
sg36
F68.77
sg37
F14422965.0
sg38
F68.45
sg39
F68.77
sg40
F68.87
sa(dp45
g35
F68.75
sg36
F68.68
sg37
F15347877.0
sg38
F68.38
sg39
F68.68
sg40
F68.72
sa(dp46
g35
F68.5
sg36
F68.45
sg37
F15484530.0
sg38
F67.5
sg39
F68.45
sg40
F67.89
sa(dp47
g35
F68.095
sg36
F67.69
sg37
F26496478.0
sg38
F67.43
sg39
F67.69
sg40
F67.5
sa(dp48
g35
F68.13
sg36
F67.71
sg37
F24789790.0
sg38
F67.14
sg39
F67.71
sg40
F67.4
sa(dp49
g35
F69.1
sg36
F67.48
sg37
F29964198.0
sg38
F67.43
sg39
F67.48
sg40
F68.89
sa(dp50
g35
F69.44
sg36
F69.41
sg37
F33250702.0
sg38
F68.16
sg39
F69.41
sg40
F68.23
sa(dp51
g35
F68.48
sg36
F68.43
sg37
F30705323.0
sg38
F67.57
sg39
F68.43
sg40
F68.14
sa(dp52
g35
F68.61
sg36
F68.38
sg37
F17073013.0
sg38
F68.04
sg39
F68.38
sg40
F68.61
sa(dp53
g35
F68.73
sg36
F68.46
sg37
F27985424.0
sg38
F68.12
sg39
F68.46
sg40
F68.36
sa(dp54
g35
F69.56
sg36
F69.31
sg37
F17842038.0
sg38
F68.92
sg39
F69.31
sg40
F68.99
sa(dp55
g35
F69.28
sg36
F69.04
sg37
F22318181.0
sg38
F68.68
sg39
F69.04
sg40
F68.86
sa(dp56
g35
F69.05
sg36
F68.94
sg37
F18446053.0
sg38
F68.42
sg39
F68.94
sg40
F68.97
sa(dp57
g35
F69.03
sg36
F69.0
sg37
F18882845.0
sg38
F68.485
sg39
F69.0
sg40
F68.9
sa(dp58
g35
F69.08
sg36
F68.81
sg37
F21421413.0
sg38
F68.64
sg39
F68.81
sg40
F69.03
sa(dp59
g35
F69.38
sg36
F69.08
sg37
F28725646.0
sg38
F68.71
sg39
F69.08
sg40
F69.38
sa(dp60
g35
F69.71
sg36
F69.3
sg37
F23000828.0
sg38
F69.13
sg39
F69.3
sg40
F69.71
sa(dp61
g35
F69.55
sg36
F69.41
sg37
F31304672.0
sg38
F68.5
sg39
F69.41
sg40
F68.68
sasS'AAPL2017-05-012017-05-31'
p62
(lp63
(dp64
S'volume'
p65
F23162873.0
sS'Adj_Close'
p66
F152.76
sS'high'
p67
F154.17
sS'low'
p68
F152.38
sS'close'
p69
F152.76
sS'open'
p70
F153.97
sa(dp71
g65
F20034934.0
sg66
F153.67
sg67
F154.43
sg68
F153.33
sg69
F153.67
sg70
F153.42
sa(dp72
g65
F21632202.0
sg66
F153.61
sg67
F154.24
sg68
F153.31
sg69
F153.61
sg70
F154.0
sa(dp73
g65
F19044463.0
sg66
F153.87
sg67
F154.35
sg68
F153.03
sg69
F153.87
sg70
F153.73
sa(dp74
g65
F19118319.0
sg66
F153.34
sg67
F154.17
sg68
F152.67
sg69
F153.34
sg70
F153.84
sa(dp75
g65
F19430358.0
sg66
F153.8
sg67
F154.9
sg68
F153.31
sg69
F153.8
sg70
F154.9
sa(dp76
g65
F22340069.0
sg66
F153.99
sg67
F154.58
sg68
F152.91
sg69
F153.99
sg70
F154.0
sa(dp77
g65
F26733798.0
sg66
F153.06
sg67
F153.98
sg68
F152.63
sg69
F153.06
sg70
F153.38
sa(dp78
g65
F33159664.0
sg66
F152.54
sg67
F153.34
sg68
F151.13
sg69
F152.54
sg70
F151.27
sa(dp79
g65
F49482818.0
sg66
F150.25
sg67
F154.57
sg68
F149.71
sg69
F150.25
sg70
F153.6
sa(dp80
g65
F19904679.0
sg66
F155.47
sg67
F156.06
sg68
F154.72
sg69
F155.47
sg70
F155.94
sa(dp81
g65
F25700983.0
sg66
F155.7
sg67
F156.65
sg68
F155.05
sg69
F155.7
sg70
F156.01
sa(dp82
g65
F32221756.0
sg66
F156.1
sg67
F156.42
sg68
F154.67
sg69
F156.1
sg70
F154.7
sa(dp83
g65
F25596687.0
sg66
F153.95
sg67
F154.07
sg68
F152.31
sg69
F153.95
sg70
F152.45
sa(dp84
g65
F25670456.0
sg66
F153.26
sg67
F153.94
sg68
F152.11
sg69
F153.26
sg70
F153.63
sa(dp85
g65
F35942435.0
sg66
F153.99
sg67
F154.88
sg68
F153.45
sg69
F153.99
sg70
F153.87
sa(dp86
g65
F48339210.0
sg66
F153.01
sg67
F153.7
sg68
F149.03
sg69
F153.01
sg70
F149.03
sa(dp87
g65
F26787359.0
sg66
F148.96
sg67
F148.98
sg68
F146.76
sg69
F148.96
sg70
F146.76
sa(dp88
g65
F23275690.0
sg66
F146.53
sg67
F147.14
sg68
F145.81
sg69
F146.53
sg70
F146.52
sa(dp89
g65
F45142806.0
sg66
F147.06
sg67
F147.49
sg68
F144.27
sg69
F147.06
sg70
F145.59
sa(dp90
g65
F39752670.0
sg66
F147.51
sg67
F148.09
sg68
F146.84
sg69
F147.51
sg70
F147.54
sa(dp91
g65
F32818760.0
sg66
F146.58
sg67
F147.2
sg68
F144.96
sg69
F146.58
sg70
F145.1
sasS'IBM2017-05-012017-06-01'
p92
(lp93
(dp94
S'volume'
p95
F2904189.0
sS'Adj_Close'
p96
F152.67
sS'high'
p97
F152.87
sS'low'
p98
F151.63
sS'close'
p99
F152.67
sS'open'
p100
F152.8
sa(dp101
g95
F3496466.0
sg96
F152.63
sg97
F152.8
sg98
F151.65
sg99
F152.63
sg100
F152.03
sa(dp102
g95
F3609710.0
sg96
F151.73
sg97
F152.67
sg98
F151.59
sg99
F151.73
sg100
F151.95
sa(dp103
g95
F2440117.0
sg96
F152.49
sg97
F153.0
sg98
F152.06
sg99
F152.49
sg100
F152.85
sa(dp104
g95
F2579828.0
sg96
F153.2
sg97
F153.73
sg98
F152.9459
sg99
F153.2
sg100
F153.25
sa(dp105
g95
F3731333.0
sg96
F152.51
sg97
F152.76
sg98
F151.23
sg99
F152.51
sg100
F152.21
sa(dp106
g95
F2563975.0
sg96
F152.03
sg97
F153.68
sg98
F151.92
sg99
F152.03
sg100
F152.57
sa(dp107
g95
F3248372.0
sg96
F152.64
sg97
F152.84
sg98
F151.5992
sg99
F152.64
sg100
F152.1
sa(dp108
g95
F5617824.0
sg96
F151.98
sg97
F152.46
sg98
F150.89
sg99
F151.98
sg100
F151.01
sa(dp109
g95
F3268772.0
sg96
F150.78
sg97
F151.33
sg98
F150.11
sg99
F150.78
sg100
F150.86
sa(dp110
g95
F5048937.0
sg96
F150.93
sg97
F154.14
sg98
F150.89
sg99
F150.93
sg100
F153.3
sa(dp111
g95
F5452539.0
sg96
F153.68
sg97
F153.99
sg98
F151.66
sg99
F153.68
sg100
F151.66
sa(dp112
g95
F4218359.0
sg96
F151.51
sg97
F151.83
sg98
F150.4502
sg99
F151.51
sg100
F150.62
sa(dp113
g95
F3651964.0
sg96
F150.37
sg97
F151.265
sg98
F150.0
sg99
F150.37
sg100
F150.3
sa(dp114
g95
F5546379.0
sg96
F150.65
sg97
F151.15
sg98
F149.79
sg99
F150.65
sg100
F151.05
sa(dp115
g95
F4995590.0
sg96
F151.25
sg97
F152.37
sg98
F151.13
sg99
F151.25
sg100
F151.651
sa(dp116
g95
F6823015.0
sg96
F152.11
sg97
F153.1
sg98
F151.5552
sg99
F152.11
sg100
F152.6
sa(dp117
g95
F7415765.0
sg96
F153.03
sg97
F153.47
sg98
F152.2
sg99
F153.03
sg100
F152.8
sa(dp118
g95
F12415240.0
sg96
F155.05
sg97
F155.78
sg98
F153.0
sg99
F155.05
sg100
F153.52
sa(dp119
g95
F4271669.0
sg96
F159.05
sg97
F159.14
sg98
F158.36
sg99
F159.05
sg100
F158.89
sa(dp120
g95
F3990429.0
sg96
F158.63
sg97
F159.45
sg98
F158.52
sg99
F158.63
sg100
F158.74
sa(dp121
g95
F3149949.0
sg96
F159.1
sg97
F159.49
sg98
F158.64
sg99
F159.1
sg100
F159.44
sa(dp122
g95
F4919710.0
sg96
F158.84
sg97
F160.42
sg98
F158.7
sg99
F158.84
sg100
F160.05
sasS'MSFT2017-05-012017-06-01'
p123
(lp124
(dp125
S'volume'
p126
F21066468.0
sS'Adj_Close'
p127
F70.1
sS'high'
p128
F70.61
sS'low'
p129
F69.451
sS'close'
p130
F70.1
sS'open'
p131
F70.24
sa(dp132
g126
F29538356.0
sg127
F69.84
sg128
F70.74
sg129
F69.81
sg130
F69.84
sg131
F70.53
sa(dp133
g126
F16901792.0
sg127
F70.41
sg128
F70.41
sg129
F69.77
sg130
F70.41
sg131
F69.79
sa(dp134
g126
F19644260.0
sg127
F69.96
sg128
F70.22
sg129
F69.52
sg130
F69.96
sg131
F69.8
sa(dp135
g126
F21702912.0
sg127
F69.62
sg128
F69.88
sg129
F68.91
sg130
F69.62
sg131
F68.97
sa(dp136
g126
F14422965.0
sg127
F68.77
sg128
F68.88
sg129
F68.45
sg130
F68.77
sg131
F68.87
sa(dp137
g126
F15347877.0
sg127
F68.68
sg128
F68.75
sg129
F68.38
sg130
F68.68
sg131
F68.72
sa(dp138
g126
F15484530.0
sg127
F68.45
sg128
F68.5
sg129
F67.5
sg130
F68.45
sg131
F67.89
sa(dp139
g126
F26496478.0
sg127
F67.69
sg128
F68.095
sg129
F67.43
sg130
F67.69
sg131
F67.5
sa(dp140
g126
F24789790.0
sg127
F67.71
sg128
F68.13
sg129
F67.14
sg130
F67.71
sg131
F67.4
sa(dp141
g126
F29964198.0
sg127
F67.48
sg128
F69.1
sg129
F67.43
sg130
F67.48
sg131
F68.89
sa(dp142
g126
F33250702.0
sg127
F69.41
sg128
F69.44
sg129
F68.16
sg130
F69.41
sg131
F68.23
sa(dp143
g126
F30705323.0
sg127
F68.43
sg128
F68.48
sg129
F67.57
sg130
F68.43
sg131
F68.14
sa(dp144
g126
F17073013.0
sg127
F68.38
sg128
F68.61
sg129
F68.04
sg130
F68.38
sg131
F68.61
sa(dp145
g126
F27985424.0
sg127
F68.46
sg128
F68.73
sg129
F68.12
sg130
F68.46
sg131
F68.36
sa(dp146
g126
F17842038.0
sg127
F69.31
sg128
F69.56
sg129
F68.92
sg130
F69.31
sg131
F68.99
sa(dp147
g126
F22318181.0
sg127
F69.04
sg128
F69.28
sg129
F68.68
sg130
F69.04
sg131
F68.86
sa(dp148
g126
F18446053.0
sg127
F68.94
sg128
F69.05
sg129
F68.42
sg130
F68.94
sg131
F68.97
sa(dp149
g126
F18882845.0
sg127
F69.0
sg128
F69.03
sg129
F68.485
sg130
F69.0
sg131
F68.9
sa(dp150
g126
F21421413.0
sg127
F68.81
sg128
F69.08
sg129
F68.64
sg130
F68.81
sg131
F69.03
sa(dp151
g126
F28725646.0
sg127
F69.08
sg128
F69.38
sg129
F68.71
sg130
F69.08
sg131
F69.38
sa(dp152
g126
F23000828.0
sg127
F69.3
sg128
F69.71
sg129
F69.13
sg130
F69.3
sg131
F69.71
sa(dp153
g126
F31304672.0
sg127
F69.41
sg128
F69.55
sg129
F68.5
sg130
F69.41
sg131
F68.68
sasS'GE2017-05-012017-05-31'
p154
(lp155
(dp156
S'volume'
p157
F34713102.0
sS'Adj_Close'
p158
F27.38
sS'high'
p159
F27.435
sS'low'
p160
F27.19
sS'close'
p161
F27.38
sS'open'
p162
F27.33
sa(dp163
g157
F36416153.0
sg158
F27.36
sg159
F27.45
sg160
F27.16
sg161
F27.36
sg162
F27.31
sa(dp164
g157
F30514810.0
sg158
F27.45
sg159
F27.55
sg160
F27.29
sg161
F27.45
sg162
F27.46
sa(dp165
g157
F39083389.0
sg158
F27.49
sg159
F27.9
sg160
F27.42
sg161
F27.49
sg162
F27.79
sa(dp166
g157
F53699253.0
sg158
F27.83
sg159
F28.5
sg160
F27.62
sg161
F27.83
sg162
F28.32
sa(dp167
g157
F22585218.0
sg158
F28.28
sg159
F28.28
sg160
F28.11
sg161
F28.28
sg162
F28.21
sa(dp168
g157
F27447047.0
sg158
F28.18
sg159
F28.3
sg160
F28.06
sg161
F28.18
sg162
F28.23
sa(dp169
g157
F47191581.0
sg158
F28.05
sg159
F28.165
sg160
F27.5
sg161
F28.05
sg162
F27.55
sa(dp170
g157
F47368864.0
sg158
F27.48
sg159
F27.65
sg160
F27.1
sg161
F27.48
sg162
F27.26
sa(dp171
g157
F51736251.0
sg158
F27.41
sg159
F27.87
sg160
F27.41
sg161
F27.41
sg162
F27.82
sa(dp172
g157
F29380413.0
sg158
F28.04
sg159
F28.28
sg160
F28.0
sg161
F28.04
sg162
F28.25
sa(dp173
g157
F39555728.0
sg158
F28.18
sg159
F28.24
sg160
F27.97
sg161
F28.18
sg162
F28.07
sa(dp174
g157
F67907806.0
sg158
F28.27
sg159
F28.45
sg160
F27.85
sg161
F28.27
sg162
F28.36
sa(dp175
g157
F27586723.0
sg158
F28.87
sg159
F28.89
sg160
F28.5
sg161
F28.87
sg162
F28.68
sa(dp176
g157
F26025480.0
sg158
F28.7
sg159
F28.93
sg160
F28.6
sg161
F28.7
sg162
F28.92
sa(dp177
g157
F23644067.0
sg158
F28.93
sg159
F29.09
sg160
F28.86
sg161
F28.93
sg162
F29.08
sa(dp178
g157
F21584760.0
sg158
F29.07
sg159
F29.245
sg160
F29.0
sg161
F29.07
sg162
F29.16
sa(dp179
g157
F16687305.0
sg158
F29.22
sg159
F29.24
sg160
F29.11
sg161
F29.22
sg162
F29.13
sa(dp180
g157
F19544097.0
sg158
F29.2
sg159
F29.31
sg160
F29.05
sg161
F29.2
sg162
F29.27
sa(dp181
g157
F26774100.0
sg158
F29.23
sg159
F29.29
sg160
F28.85
sg161
F29.23
sg162
F28.92
sa(dp182
g157
F31475876.0
sg158
F28.99
sg159
F29.05
sg160
F28.91
sg161
F28.99
sg162
F29.01
sa(dp183
g157
F23695689.0
sg158
F28.94
sg159
F29.17
sg160
F28.93
sg161
F28.94
sg162
F29.01
sasS'IBM2017-05-012017-05-31'
p184
(lp185
(dp186
S'high'
p187
F152.8
sS'Adj_Close'
p188
F152.63
sS'volume'
p189
F3496466.0
sS'low'
p190
F151.65
sS'close'
p191
F152.63
sS'open'
p192
F152.03
sa(dp193
g187
F152.67
sg188
F151.73
sg189
F3609710.0
sg190
F151.59
sg191
F151.73
sg192
F151.95
sa(dp194
g187
F153.0
sg188
F152.49
sg189
F2440117.0
sg190
F152.06
sg191
F152.49
sg192
F152.85
sa(dp195
g187
F153.73
sg188
F153.2
sg189
F2579828.0
sg190
F152.9459
sg191
F153.2
sg192
F153.25
sa(dp196
g187
F152.76
sg188
F152.51
sg189
F3731333.0
sg190
F151.23
sg191
F152.51
sg192
F152.21
sa(dp197
g187
F153.68
sg188
F152.03
sg189
F2563975.0
sg190
F151.92
sg191
F152.03
sg192
F152.57
sa(dp198
g187
F152.84
sg188
F152.64
sg189
F3248372.0
sg190
F151.5992
sg191
F152.64
sg192
F152.1
sa(dp199
g187
F152.46
sg188
F151.98
sg189
F5617824.0
sg190
F150.89
sg191
F151.98
sg192
F151.01
sa(dp200
g187
F151.33
sg188
F150.78
sg189
F3268772.0
sg190
F150.11
sg191
F150.78
sg192
F150.86
sa(dp201
g187
F154.14
sg188
F150.93
sg189
F5048937.0
sg190
F150.89
sg191
F150.93
sg192
F153.3
sa(dp202
g187
F153.99
sg188
F153.68
sg189
F5452539.0
sg190
F151.66
sg191
F153.68
sg192
F151.66
sa(dp203
g187
F151.83
sg188
F151.51
sg189
F4218359.0
sg190
F150.4502
sg191
F151.51
sg192
F150.62
sa(dp204
g187
F151.265
sg188
F150.37
sg189
F3651964.0
sg190
F150.0
sg191
F150.37
sg192
F150.3
sa(dp205
g187
F151.15
sg188
F150.65
sg189
F5546379.0
sg190
F149.79
sg191
F150.65
sg192
F151.05
sa(dp206
g187
F152.37
sg188
F151.25
sg189
F4995590.0
sg190
F151.13
sg191
F151.25
sg192
F151.651
sa(dp207
g187
F153.1
sg188
F152.11
sg189
F6823015.0
sg190
F151.5552
sg191
F152.11
sg192
F152.6
sa(dp208
g187
F153.47
sg188
F153.03
sg189
F7415765.0
sg190
F152.2
sg191
F153.03
sg192
F152.8
sa(dp209
g187
F155.78
sg188
F155.05
sg189
F12415240.0
sg190
F153.0
sg191
F155.05
sg192
F153.52
sa(dp210
g187
F159.14
sg188
F159.05
sg189
F4271669.0
sg190
F158.36
sg191
F159.05
sg192
F158.89
sa(dp211
g187
F159.45
sg188
F158.63
sg189
F3990429.0
sg190
F158.52
sg191
F158.63
sg192
F158.74
sa(dp212
g187
F159.49
sg188
F159.1
sg189
F3149949.0
sg190
F158.64
sg191
F159.1
sg192
F159.44
sa(dp213
g187
F160.42
sg188
F158.84
sg189
F4919710.0
sg190
F158.7
sg191
F158.84
sg192
F160.05
sasS'RDSMY2017-03-012017-03-31'
p214
(lp215
(dp216
S'high'
p217
F17.05
sS'Adj_Close'
p218
F16.97
sS'volume'
p219
F30774.0
sS'low'
p220
F16.97
sS'close'
p221
F16.97
sS'open'
p222
F16.99
sa(dp223
g217
F17.21
sg218
F17.08
sg219
F26924.0
sg220
F17.01
sg221
F17.08
sg222
F17.21
sa(dp224
g217
F17.006
sg218
F16.96
sg219
F47328.0
sg220
F16.88
sg221
F16.96
sg222
F17.006
sa(dp225
g217
F17.22
sg218
F17.19
sg219
F24615.0
sg220
F17.13
sg221
F17.19
sg222
F17.185
sa(dp226
g217
F17.01
sg218
F17.0
sg219
F28144.0
sg220
F16.91
sg221
F17.0
sg222
F16.96
sa(dp227
g217
F17.01
sg218
F16.96
sg219
F38539.0
sg220
F16.89
sg221
F16.96
sg222
F16.93
sa(dp228
g217
F16.82
sg218
F16.8
sg219
F32496.0
sg220
F16.66
sg221
F16.8
sg222
F16.66
sa(dp229
g217
F16.79
sg218
F16.76
sg219
F37043.0
sg220
F16.63
sg221
F16.76
sg222
F16.63
sa(dp230
g217
F17.05
sg218
F16.81
sg219
F33524.0
sg220
F16.77
sg221
F16.81
sg222
F16.99
sa(dp231
g217
F16.89
sg218
F16.81
sg219
F30251.0
sg220
F16.72
sg221
F16.81
sg222
F16.8
sa(dp232
g217
F16.85
sg218
F16.8
sg219
F51054.0
sg220
F16.77
sg221
F16.8
sg222
F16.79
sa(dp233
g217
F16.87
sg218
F16.87
sg219
F47370.0
sg220
F16.7
sg221
F16.87
sg222
F16.83
sa(dp234
g217
F17.04
sg218
F17.04
sg219
F25393.0
sg220
F16.69
sg221
F17.04
sg222
F16.69
sa(dp235
g217
F16.87
sg218
F16.83
sg219
F59285.0
sg220
F16.8
sg221
F16.83
sg222
F16.81
sa(dp236
g217
F16.98
sg218
F16.96
sg219
F29616.0
sg220
F16.88
sg221
F16.96
sg222
F16.88
sa(dp237
g217
F17.02
sg218
F17.0
sg219
F19316.0
sg220
F16.83
sg221
F17.0
sg222
F16.86
sa(dp238
g217
F16.98
sg218
F16.82
sg219
F77170.0
sg220
F16.76
sg221
F16.82
sg222
F16.87
sa(dp239
g217
F16.79
sg218
F16.36
sg219
F79251.0
sg220
F16.256
sg221
F16.36
sg222
F16.27
sa(dp240
g217
F16.42
sg218
F16.39
sg219
F36379.0
sg220
F16.364
sg221
F16.39
sg222
F16.41
sa(dp241
g217
F16.46
sg218
F16.45
sg219
F38469.0
sg220
F16.39
sg221
F16.45
sg222
F16.41
sa(dp242
g217
F16.52
sg218
F16.5
sg219
F31001.0
sg220
F16.35
sg221
F16.5
sg222
F16.41
sa(dp243
g217
F16.46
sg218
F16.41
sg219
F38808.0
sg220
F16.39
sg221
F16.41
sg222
F16.43
sa(dp244
g217
F16.57
sg218
F16.54
sg219
F27705.0
sg220
F16.415
sg221
F16.54
sg222
F16.415
sasS'GE2017-05-012017-06-01'
p245
(lp246
(dp247
S'high'
p248
F27.876
sS'Adj_Close'
p249
F27.72
sS'volume'
p250
F32184711.0
sS'low'
p251
F27.5
sS'close'
p252
F27.72
sS'open'
p253
F27.51
sa(dp254
g248
F27.435
sg249
F27.38
sg250
F34713102.0
sg251
F27.19
sg252
F27.38
sg253
F27.33
sa(dp255
g248
F27.45
sg249
F27.36
sg250
F36416153.0
sg251
F27.16
sg252
F27.36
sg253
F27.31
sa(dp256
g248
F27.55
sg249
F27.45
sg250
F30514810.0
sg251
F27.29
sg252
F27.45
sg253
F27.46
sa(dp257
g248
F27.9
sg249
F27.49
sg250
F39083389.0
sg251
F27.42
sg252
F27.49
sg253
F27.79
sa(dp258
g248
F28.5
sg249
F27.83
sg250
F53699253.0
sg251
F27.62
sg252
F27.83
sg253
F28.32
sa(dp259
g248
F28.28
sg249
F28.28
sg250
F22585218.0
sg251
F28.11
sg252
F28.28
sg253
F28.21
sa(dp260
g248
F28.3
sg249
F28.18
sg250
F27447047.0
sg251
F28.06
sg252
F28.18
sg253
F28.23
sa(dp261
g248
F28.165
sg249
F28.05
sg250
F47191581.0
sg251
F27.5
sg252
F28.05
sg253
F27.55
sa(dp262
g248
F27.65
sg249
F27.48
sg250
F47368864.0
sg251
F27.1
sg252
F27.48
sg253
F27.26
sa(dp263
g248
F27.87
sg249
F27.41
sg250
F51736251.0
sg251
F27.41
sg252
F27.41
sg253
F27.82
sa(dp264
g248
F28.28
sg249
F28.04
sg250
F29380413.0
sg251
F28.0
sg252
F28.04
sg253
F28.25
sa(dp265
g248
F28.24
sg249
F28.18
sg250
F39555728.0
sg251
F27.97
sg252
F28.18
sg253
F28.07
sa(dp266
g248
F28.45
sg249
F28.27
sg250
F67907806.0
sg251
F27.85
sg252
F28.27
sg253
F28.36
sa(dp267
g248
F28.89
sg249
F28.87
sg250
F27586723.0
sg251
F28.5
sg252
F28.87
sg253
F28.68
sa(dp268
g248
F28.93
sg249
F28.7
sg250
F26025480.0
sg251
F28.6
sg252
F28.7
sg253
F28.92
sa(dp269
g248
F29.09
sg249
F28.93
sg250
F23644067.0
sg251
F28.86
sg252
F28.93
sg253
F29.08
sa(dp270
g248
F29.245
sg249
F29.07
sg250
F21584760.0
sg251
F29.0
sg252
F29.07
sg253
F29.16
sa(dp271
g248
F29.24
sg249
F29.22
sg250
F16687305.0
sg251
F29.11
sg252
F29.22
sg253
F29.13
sa(dp272
g248
F29.31
sg249
F29.2
sg250
F19544097.0
sg251
F29.05
sg252
F29.2
sg253
F29.27
sa(dp273
g248
F29.29
sg249
F29.23
sg250
F26774100.0
sg251
F28.85
sg252
F29.23
sg253
F28.92
sa(dp274
g248
F29.05
sg249
F28.99
sg250
F31475876.0
sg251
F28.91
sg252
F28.99
sg253
F29.01
sa(dp275
g248
F29.17
sg249
F28.94
sg250
F23695689.0
sg251
F28.93
sg252
F28.94
sg253
F29.01
sasS'FB2017-05-012017-05-31'
p276
(lp277
(dp278
S'high'
p279
F153.35
sS'Adj_Close'
p280
F151.46
sS'volume'
p281
F17709427.0
sS'low'
p282
F151.09
sS'close'
p283
F151.46
sS'open'
p284
F152.7
sa(dp285
g279
F152.9
sg280
F152.38
sg281
F13145329.0
sg282
F151.64
sg283
F152.38
sg284
F151.97
sa(dp286
g279
F152.25
sg280
F152.13
sg281
F14907827.0
sg282
F151.15
sg283
F152.13
sg284
F152.23
sa(dp287
g279
F152.59
sg280
F151.96
sg281
F19780399.0
sg282
F149.95
sg283
F151.96
sg284
F150.3
sa(dp288
g279
F150.23
sg280
F150.04
sg281
F17769670.0
sg282
F148.42
sg283
F150.04
sg284
F148.51
sa(dp289
g279
F148.81
sg280
F148.07
sg281
F12665886.0
sg282
F147.25
sg283
F148.07
sg284
F148.52
sa(dp290
g279
F148.59
sg280
F148.24
sg281
F12379481.0
sg282
F147.69
sg283
F148.24
sg284
F148.08
sa(dp291
g279
F149.39
sg280
F148.06
sg281
F16101229.0
sg282
F147.96
sg283
F148.06
sg284
F148.45
sa(dp292
g279
F148.15
sg280
F147.66
sg281
F21784326.0
sg282
F144.51
sg283
F147.66
sg284
F144.72
sa(dp293
g279
F148.67
sg280
F144.85
sg281
F27908167.0
sg282
F144.42
sg283
F144.85
sg284
F148.0
sa(dp294
g279
F150.21
sg280
F149.78
sg281
F14420715.0
sg282
F149.03
sg283
F149.78
sg284
F150.11
sa(dp295
g279
F151.48
sg280
F150.19
sg281
F14909882.0
sg282
F149.77
sg283
F150.19
sg284
F150.17
sa(dp296
g279
F150.46
sg280
F150.33
sg281
F9497040.0
sg282
F149.63
sg283
F150.33
sg284
F150.4
sa(dp297
g279
F150.65
sg280
F150.04
sg281
F11623865.0
sg282
F149.41
sg283
F150.04
sg284
F150.31
sa(dp298
g279
F150.52
sg280
F150.29
sg281
F11653395.0
sg282
F148.86
sg283
F150.29
sg284
F150.23
sa(dp299
g279
F152.59
sg280
F150.48
sg281
F17325999.0
sg282
F150.21
sg283
F150.48
sg284
F151.49
sa(dp300
g279
F151.08
sg280
F151.06
sg281
F15662472.0
sg282
F149.74
sg283
F151.06
sg284
F150.71
sa(dp301
g279
F151.63
sg280
F150.24
sg281
F17051519.0
sg282
F149.79
sg283
F150.24
sg284
F151.45
sa(dp302
g279
F151.52
sg280
F150.85
sg281
F36060301.0
sg282
F148.72
sg283
F150.85
sg284
F150.17
sa(dp303
g279
F153.6
sg280
F151.8
sg281
F21755088.0
sg282
F151.34
sg283
F151.8
sg284
F153.6
sa(dp304
g279
F153.44
sg280
F152.78
sg281
F21255365.0
sg282
F151.66
sg283
F152.78
sg284
F153.34
sa(dp305
g279
F152.57
sg280
F152.46
sg281
F24669159.0
sg282
F151.42
sg283
F152.46
sg284
F151.74
sasS'AAPL2017-05-012017-06-01'
p306
(lp307
(dp308
S'high'
p309
F153.33
sS'Adj_Close'
p310
F153.18
sS'volume'
p311
F16180143.0
sS'low'
p312
F152.22
sS'close'
p313
F153.18
sS'open'
p314
F153.17
sa(dp315
g309
F154.17
sg310
F152.76
sg311
F23162873.0
sg312
F152.38
sg313
F152.76
sg314
F153.97
sa(dp316
g309
F154.43
sg310
F153.67
sg311
F20034934.0
sg312
F153.33
sg313
F153.67
sg314
F153.42
sa(dp317
g309
F154.24
sg310
F153.61
sg311
F21632202.0
sg312
F153.31
sg313
F153.61
sg314
F154.0
sa(dp318
g309
F154.35
sg310
F153.87
sg311
F19044463.0
sg312
F153.03
sg313
F153.87
sg314
F153.73
sa(dp319
g309
F154.17
sg310
F153.34
sg311
F19118319.0
sg312
F152.67
sg313
F153.34
sg314
F153.84
sa(dp320
g309
F154.9
sg310
F153.8
sg311
F19430358.0
sg312
F153.31
sg313
F153.8
sg314
F154.9
sa(dp321
g309
F154.58
sg310
F153.99
sg311
F22340069.0
sg312
F152.91
sg313
F153.99
sg314
F154.0
sa(dp322
g309
F153.98
sg310
F153.06
sg311
F26733798.0
sg312
F152.63
sg313
F153.06
sg314
F153.38
sa(dp323
g309
F153.34
sg310
F152.54
sg311
F33159664.0
sg312
F151.13
sg313
F152.54
sg314
F151.27
sa(dp324
g309
F154.57
sg310
F150.25
sg311
F49482818.0
sg312
F149.71
sg313
F150.25
sg314
F153.6
sa(dp325
g309
F156.06
sg310
F155.47
sg311
F19904679.0
sg312
F154.72
sg313
F155.47
sg314
F155.94
sa(dp326
g309
F156.65
sg310
F155.7
sg311
F25700983.0
sg312
F155.05
sg313
F155.7
sg314
F156.01
sa(dp327
g309
F156.42
sg310
F156.1
sg311
F32221756.0
sg312
F154.67
sg313
F156.1
sg314
F154.7
sa(dp328
g309
F154.07
sg310
F153.95
sg311
F25596687.0
sg312
F152.31
sg313
F153.95
sg314
F152.45
sa(dp329
g309
F153.94
sg310
F153.26
sg311
F25670456.0
sg312
F152.11
sg313
F153.26
sg314
F153.63
sa(dp330
g309
F154.88
sg310
F153.99
sg311
F35942435.0
sg312
F153.45
sg313
F153.99
sg314
F153.87
sa(dp331
g309
F153.7
sg310
F153.01
sg311
F48339210.0
sg312
F149.03
sg313
F153.01
sg314
F149.03
sa(dp332
g309
F148.98
sg310
F148.96
sg311
F26787359.0
sg312
F146.76
sg313
F148.96
sg314
F146.76
sa(dp333
g309
F147.14
sg310
F146.53
sg311
F23275690.0
sg312
F145.81
sg313
F146.53
sg314
F146.52
sa(dp334
g309
F147.49
sg310
F147.06
sg311
F45142806.0
sg312
F144.27
sg313
F147.06
sg314
F145.59
sa(dp335
g309
F148.09
sg310
F147.51
sg311
F39752670.0
sg312
F146.84
sg313
F147.51
sg314
F147.54
sa(dp336
g309
F147.2
sg310
F146.58
sg311
F32818760.0
sg312
F144.96
sg313
F146.58
sg314
F145.1
sas.