(dp0
S'FB2017-05-012017-06-01'
p1
(lp2
(dp3
S'high'
p4
F152.29
sS'Adj_Close'
p5
F151.53
sS'volume'
p6
F14459173.0
sS'low'
p7
F150.3
sS'close'
p8
F151.53
sS'open'
p9
F151.75
sa(dp10
g4
F153.35
sg5
F151.46
sg6
F17709427.0
sg7
F151.09
sg8
F151.46
sg9
F152.7
sa(dp11
g4
F152.9
sg5
F152.38
sg6
F13145329.0
sg7
F151.64
sg8
F152.38
sg9
F151.97
sa(dp12
g4
F152.25
sg5
F152.13
sg6
F14907827.0
sg7
F151.15
sg8
F152.13
sg9
F152.23
sa(dp13
g4
F152.59
sg5
F151.96
sg6
F19780399.0
sg7
F149.95
sg8
F151.96
sg9
F150.3
sa(dp14
g4
F150.23
sg5
F150.04
sg6
F17769670.0
sg7
F148.42
sg8
F150.04
sg9
F148.51
sa(dp15
g4
F148.81
sg5
F148.07
sg6
F12665886.0
sg7
F147.25
sg8
F148.07
sg9
F148.52
sa(dp16
g4
F148.59
sg5
F148.24
sg6
F12379481.0
sg7
F147.69
sg8
F148.24
sg9
F148.08
sa(dp17
g4
F149.39
sg5
F148.06
sg6
F16101229.0
sg7
F147.96
sg8
F148.06
sg9
F148.45
sa(dp18
g4
F148.15
sg5
F147.66
sg6
F21784326.0
sg7
F144.51
sg8
F147.66
sg9
F144.72
sa(dp19
g4
F148.67
sg5
F144.85
sg6
F27908167.0
sg7
F144.42
sg8
F144.85
sg9
F148.0
sa(dp20
g4
F150.21
sg5
F149.78
sg6
F14420715.0
sg7
F149.03
sg8
F149.78
sg9
F150.11
sa(dp21
g4
F151.48
sg5
F150.19
sg6
F14909882.0
sg7
F149.77
sg8
F150.19
sg9
F150.17
sa(dp22
g4
F150.46
sg5
F150.33
sg6
F9497040.0
sg7
F149.63
sg8
F150.33
sg9
F150.4
sa(dp23
g4
F150.65
sg5
F150.04
sg6
F11623865.0
sg7
F149.41
sg8
F150.04
sg9
F150.31
sa(dp24
g4
F150.52
sg5
F150.29
sg6
F11653395.0
sg7
F148.86
sg8
F150.29
sg9
F150.23
sa(dp25
g4
F152.59
sg5
F150.48
sg6
F17325999.0
sg7
F150.21
sg8
F150.48
sg9
F151.49
sa(dp26
g4
F151.08
sg5
F151.06
sg6
F15662472.0
sg7
F149.74
sg8
F151.06
sg9
F150.71
sa(dp27
g4
F151.63
sg5
F150.24
sg6
F17051519.0
sg7
F149.79
sg8
F150.24
sg9
F151.45
sa(dp28
g4
F151.52
sg5
F150.85
sg6
F36060301.0
sg7
F148.72
sg8
F150.85
sg9
F150.17
sa(dp29
g4
F153.6
sg5
F151.8
sg6
F21755088.0
sg7
F151.34
sg8
F151.8
sg9
F153.6
sa(dp30
g4
F153.44
sg5
F152.78
sg6
F21255365.0
sg7
F151.66
sg8
F152.78
sg9
F153.34
sa(dp31
g4
F152.57
sg5
F152.46
sg6
F24669159.0
sg7
F151.42
sg8
F152.46
sg9
F151.74
sasS'RDSMY2017-03-012017-03-31'
p32
(lp33
(dp34
S'volume'
p35
F30774.0
sS'Adj_Close'
p36
F16.97
sS'high'
p37
F17.05
sS'low'
p38
F16.97
sS'close'
p39
F16.97
sS'open'
p40
F16.99
sa(dp41
g35
F26924.0
sg36
F17.08
sg37
F17.21
sg38
F17.01
sg39
F17.08
sg40
F17.21
sa(dp42
g35
F47328.0
sg36
F16.96
sg37
F17.006
sg38
F16.88
sg39
F16.96
sg40
F17.006
sa(dp43
g35
F24615.0
sg36
F17.19
sg37
F17.22
sg38
F17.13
sg39
F17.19
sg40
F17.185
sa(dp44
g35
F28144.0
sg36
F17.0
sg37
F17.01
sg38
F16.91
sg39
F17.0
sg40
F16.96
sa(dp45
g35
F38539.0
sg36
F16.96
sg37
F17.01
sg38
F16.89
sg39
F16.96
sg40
F16.93
sa(dp46
g35
F32496.0
sg36
F16.8
sg37
F16.82
sg38
F16.66
sg39
F16.8
sg40
F16.66
sa(dp47
g35
F37043.0
sg36
F16.76
sg37
F16.79
sg38
F16.63
sg39
F16.76
sg40
F16.63
sa(dp48
g35
F33524.0
sg36
F16.81
sg37
F17.05
sg38
F16.77
sg39
F16.81
sg40
F16.99
sa(dp49
g35
F30251.0
sg36
F16.81
sg37
F16.89
sg38
F16.72
sg39
F16.81
sg40
F16.8
sa(dp50
g35
F51054.0
sg36
F16.8
sg37
F16.85
sg38
F16.77
sg39
F16.8
sg40
F16.79
sa(dp51
g35
F47370.0
sg36
F16.87
sg37
F16.87
sg38
F16.7
sg39
F16.87
sg40
F16.83
sa(dp52
g35
F25393.0
sg36
F17.04
sg37
F17.04
sg38
F16.69
sg39
F17.04
sg40
F16.69
sa(dp53
g35
F59285.0
sg36
F16.83
sg37
F16.87
sg38
F16.8
sg39
F16.83
sg40
F16.81
sa(dp54
g35
F29616.0
sg36
F16.96
sg37
F16.98
sg38
F16.88
sg39
F16.96
sg40
F16.88
sa(dp55
g35
F19316.0
sg36
F17.0
sg37
F17.02
sg38
F16.83
sg39
F17.0
sg40
F16.86
sa(dp56
g35
F77170.0
sg36
F16.82
sg37
F16.98
sg38
F16.76
sg39
F16.82
sg40
F16.87
sa(dp57
g35
F79251.0
sg36
F16.36
sg37
F16.79
sg38
F16.256
sg39
F16.36
sg40
F16.27
sa(dp58
g35
F36379.0
sg36
F16.39
sg37
F16.42
sg38
F16.364
sg39
F16.39
sg40
F16.41
sa(dp59
g35
F38469.0
sg36
F16.45
sg37
F16.46
sg38
F16.39
sg39
F16.45
sg40
F16.41
sa(dp60
g35
F31001.0
sg36
F16.5
sg37
F16.52
sg38
F16.35
sg39
F16.5
sg40
F16.41
sa(dp61
g35
F38808.0
sg36
F16.41
sg37
F16.46
sg38
F16.39
sg39
F16.41
sg40
F16.43
sa(dp62
g35
F27705.0
sg36
F16.54
sg37
F16.57
sg38
F16.415
sg39
F16.54
sg40
F16.415
sasS'MSFT2017-05-012017-06-01'
p63
(lp64
(dp65
S'high'
p66
F70.61
sS'Adj_Close'
p67
F70.1
sS'volume'
p68
F21066468.0
sS'low'
p69
F69.451
sS'close'
p70
F70.1
sS'open'
p71
F70.24
sa(dp72
g66
F70.74
sg67
F69.84
sg68
F29538356.0
sg69
F69.81
sg70
F69.84
sg71
F70.53
sa(dp73
g66
F70.41
sg67
F70.41
sg68
F16901792.0
sg69
F69.77
sg70
F70.41
sg71
F69.79
sa(dp74
g66
F70.22
sg67
F69.96
sg68
F19644260.0
sg69
F69.52
sg70
F69.96
sg71
F69.8
sa(dp75
g66
F69.88
sg67
F69.62
sg68
F21702912.0
sg69
F68.91
sg70
F69.62
sg71
F68.97
sa(dp76
g66
F68.88
sg67
F68.77
sg68
F14422965.0
sg69
F68.45
sg70
F68.77
sg71
F68.87
sa(dp77
g66
F68.75
sg67
F68.68
sg68
F15347877.0
sg69
F68.38
sg70
F68.68
sg71
F68.72
sa(dp78
g66
F68.5
sg67
F68.45
sg68
F15484530.0
sg69
F67.5
sg70
F68.45
sg71
F67.89
sa(dp79
g66
F68.095
sg67
F67.69
sg68
F26496478.0
sg69
F67.43
sg70
F67.69
sg71
F67.5
sa(dp80
g66
F68.13
sg67
F67.71
sg68
F24789790.0
sg69
F67.14
sg70
F67.71
sg71
F67.4
sa(dp81
g66
F69.1
sg67
F67.48
sg68
F29964198.0
sg69
F67.43
sg70
F67.48
sg71
F68.89
sa(dp82
g66
F69.44
sg67
F69.41
sg68
F33250702.0
sg69
F68.16
sg70
F69.41
sg71
F68.23
sa(dp83
g66
F68.48
sg67
F68.43
sg68
F30705323.0
sg69
F67.57
sg70
F68.43
sg71
F68.14
sa(dp84
g66
F68.61
sg67
F68.38
sg68
F17073013.0
sg69
F68.04
sg70
F68.38
sg71
F68.61
sa(dp85
g66
F68.73
sg67
F68.46
sg68
F27985424.0
sg69
F68.12
sg70
F68.46
sg71
F68.36
sa(dp86
g66
F69.56
sg67
F69.31
sg68
F17842038.0
sg69
F68.92
sg70
F69.31
sg71
F68.99
sa(dp87
g66
F69.28
sg67
F69.04
sg68
F22318181.0
sg69
F68.68
sg70
F69.04
sg71
F68.86
sa(dp88
g66
F69.05
sg67
F68.94
sg68
F18446053.0
sg69
F68.42
sg70
F68.94
sg71
F68.97
sa(dp89
g66
F69.03
sg67
F69.0
sg68
F18882845.0
sg69
F68.485
sg70
F69.0
sg71
F68.9
sa(dp90
g66
F69.08
sg67
F68.81
sg68
F21421413.0
sg69
F68.64
sg70
F68.81
sg71
F69.03
sa(dp91
g66
F69.38
sg67
F69.08
sg68
F28725646.0
sg69
F68.71
sg70
F69.08
sg71
F69.38
sa(dp92
g66
F69.71
sg67
F69.3
sg68
F23000828.0
sg69
F69.13
sg70
F69.3
sg71
F69.71
sa(dp93
g66
F69.55
sg67
F69.41
sg68
F31304672.0
sg69
F68.5
sg70
F69.41
sg71
F68.68
sasS'IBM2017-05-012017-06-01'
p94
(lp95
(dp96
S'high'
p97
F152.87
sS'Adj_Close'
p98
F152.67
sS'volume'
p99
F2904189.0
sS'low'
p100
F151.63
sS'close'
p101
F152.67
sS'open'
p102
F152.8
sa(dp103
g97
F152.8
sg98
F152.63
sg99
F3496466.0
sg100
F151.65
sg101
F152.63
sg102
F152.03
sa(dp104
g97
F152.67
sg98
F151.73
sg99
F3609710.0
sg100
F151.59
sg101
F151.73
sg102
F151.95
sa(dp105
g97
F153.0
sg98
F152.49
sg99
F2440117.0
sg100
F152.06
sg101
F152.49
sg102
F152.85
sa(dp106
g97
F153.73
sg98
F153.2
sg99
F2579828.0
sg100
F152.9459
sg101
F153.2
sg102
F153.25
sa(dp107
g97
F152.76
sg98
F152.51
sg99
F3731333.0
sg100
F151.23
sg101
F152.51
sg102
F152.21
sa(dp108
g97
F153.68
sg98
F152.03
sg99
F2563975.0
sg100
F151.92
sg101
F152.03
sg102
F152.57
sa(dp109
g97
F152.84
sg98
F152.64
sg99
F3248372.0
sg100
F151.5992
sg101
F152.64
sg102
F152.1
sa(dp110
g97
F152.46
sg98
F151.98
sg99
F5617824.0
sg100
F150.89
sg101
F151.98
sg102
F151.01
sa(dp111
g97
F151.33
sg98
F150.78
sg99
F3268772.0
sg100
F150.11
sg101
F150.78
sg102
F150.86
sa(dp112
g97
F154.14
sg98
F150.93
sg99
F5048937.0
sg100
F150.89
sg101
F150.93
sg102
F153.3
sa(dp113
g97
F153.99
sg98
F153.68
sg99
F5452539.0
sg100
F151.66
sg101
F153.68
sg102
F151.66
sa(dp114
g97
F151.83
sg98
F151.51
sg99
F4218359.0
sg100
F150.4502
sg101
F151.51
sg102
F150.62
sa(dp115
g97
F151.265
sg98
F150.37
sg99
F3651964.0
sg100
F150.0
sg101
F150.37
sg102
F150.3
sa(dp116
g97
F151.15
sg98
F150.65
sg99
F5546379.0
sg100
F149.79
sg101
F150.65
sg102
F151.05
sa(dp117
g97
F152.37
sg98
F151.25
sg99
F4995590.0
sg100
F151.13
sg101
F151.25
sg102
F151.651
sa(dp118
g97
F153.1
sg98
F152.11
sg99
F6823015.0
sg100
F151.5552
sg101
F152.11
sg102
F152.6
sa(dp119
g97
F153.47
sg98
F153.03
sg99
F7415765.0
sg100
F152.2
sg101
F153.03
sg102
F152.8
sa(dp120
g97
F155.78
sg98
F155.05
sg99
F12415240.0
sg100
F153.0
sg101
F155.05
sg102
F153.52
sa(dp121
g97
F159.14
sg98
F159.05
sg99
F4271669.0
sg100
F158.36
sg101
F159.05
sg102
F158.89
sa(dp122
g97
F159.45
sg98
F158.63
sg99
F3990429.0
sg100
F158.52
sg101
F158.63
sg102
F158.74
sa(dp123
g97
F159.49
sg98
F159.1
sg99
F3149949.0
sg100
F158.64
sg101
F159.1
sg102
F159.44
sa(dp124
g97
F160.42
sg98
F158.84
sg99
F4919710.0
sg100
F158.7
sg101
F158.84
sg102
F160.05
sasS'GE2017-05-012017-06-01'
p125
(lp126
(dp127
S'volume'
p128
F32184711.0
sS'Adj_Close'
p129
F27.72
sS'high'
p130
F27.876
sS'low'
p131
F27.5
sS'close'
p132
F27.72
sS'open'
p133
F27.51
sa(dp134
g128
F34713102.0
sg129
F27.38
sg130
F27.435
sg131
F27.19
sg132
F27.38
sg133
F27.33
sa(dp135
g128
F36416153.0
sg129
F27.36
sg130
F27.45
sg131
F27.16
sg132
F27.36
sg133
F27.31
sa(dp136
g128
F30514810.0
sg129
F27.45
sg130
F27.55
sg131
F27.29
sg132
F27.45
sg133
F27.46
sa(dp137
g128
F39083389.0
sg129
F27.49
sg130
F27.9
sg131
F27.42
sg132
F27.49
sg133
F27.79
sa(dp138
g128
F53699253.0
sg129
F27.83
sg130
F28.5
sg131
F27.62
sg132
F27.83
sg133
F28.32
sa(dp139
g128
F22585218.0
sg129
F28.28
sg130
F28.28
sg131
F28.11
sg132
F28.28
sg133
F28.21
sa(dp140
g128
F27447047.0
sg129
F28.18
sg130
F28.3
sg131
F28.06
sg132
F28.18
sg133
F28.23
sa(dp141
g128
F47191581.0
sg129
F28.05
sg130
F28.165
sg131
F27.5
sg132
F28.05
sg133
F27.55
sa(dp142
g128
F47368864.0
sg129
F27.48
sg130
F27.65
sg131
F27.1
sg132
F27.48
sg133
F27.26
sa(dp143
g128
F51736251.0
sg129
F27.41
sg130
F27.87
sg131
F27.41
sg132
F27.41
sg133
F27.82
sa(dp144
g128
F29380413.0
sg129
F28.04
sg130
F28.28
sg131
F28.0
sg132
F28.04
sg133
F28.25
sa(dp145
g128
F39555728.0
sg129
F28.18
sg130
F28.24
sg131
F27.97
sg132
F28.18
sg133
F28.07
sa(dp146
g128
F67907806.0
sg129
F28.27
sg130
F28.45
sg131
F27.85
sg132
F28.27
sg133
F28.36
sa(dp147
g128
F27586723.0
sg129
F28.87
sg130
F28.89
sg131
F28.5
sg132
F28.87
sg133
F28.68
sa(dp148
g128
F26025480.0
sg129
F28.7
sg130
F28.93
sg131
F28.6
sg132
F28.7
sg133
F28.92
sa(dp149
g128
F23644067.0
sg129
F28.93
sg130
F29.09
sg131
F28.86
sg132
F28.93
sg133
F29.08
sa(dp150
g128
F21584760.0
sg129
F29.07
sg130
F29.245
sg131
F29.0
sg132
F29.07
sg133
F29.16
sa(dp151
g128
F16687305.0
sg129
F29.22
sg130
F29.24
sg131
F29.11
sg132
F29.22
sg133
F29.13
sa(dp152
g128
F19544097.0
sg129
F29.2
sg130
F29.31
sg131
F29.05
sg132
F29.2
sg133
F29.27
sa(dp153
g128
F26774100.0
sg129
F29.23
sg130
F29.29
sg131
F28.85
sg132
F29.23
sg133
F28.92
sa(dp154
g128
F31475876.0
sg129
F28.99
sg130
F29.05
sg131
F28.91
sg132
F28.99
sg133
F29.01
sa(dp155
g128
F23695689.0
sg129
F28.94
sg130
F29.17
sg131
F28.93
sg132
F28.94
sg133
F29.01
sasS'AAPL2017-05-012017-06-01'
p156
(lp157
(dp158
S'volume'
p159
F16180143.0
sS'Adj_Close'
p160
F153.18
sS'high'
p161
F153.33
sS'low'
p162
F152.22
sS'close'
p163
F153.18
sS'open'
p164
F153.17
sa(dp165
g159
F23162873.0
sg160
F152.76
sg161
F154.17
sg162
F152.38
sg163
F152.76
sg164
F153.97
sa(dp166
g159
F20034934.0
sg160
F153.67
sg161
F154.43
sg162
F153.33
sg163
F153.67
sg164
F153.42
sa(dp167
g159
F21632202.0
sg160
F153.61
sg161
F154.24
sg162
F153.31
sg163
F153.61
sg164
F154.0
sa(dp168
g159
F19044463.0
sg160
F153.87
sg161
F154.35
sg162
F153.03
sg163
F153.87
sg164
F153.73
sa(dp169
g159
F19118319.0
sg160
F153.34
sg161
F154.17
sg162
F152.67
sg163
F153.34
sg164
F153.84
sa(dp170
g159
F19430358.0
sg160
F153.8
sg161
F154.9
sg162
F153.31
sg163
F153.8
sg164
F154.9
sa(dp171
g159
F22340069.0
sg160
F153.99
sg161
F154.58
sg162
F152.91
sg163
F153.99
sg164
F154.0
sa(dp172
g159
F26733798.0
sg160
F153.06
sg161
F153.98
sg162
F152.63
sg163
F153.06
sg164
F153.38
sa(dp173
g159
F33159664.0
sg160
F152.54
sg161
F153.34
sg162
F151.13
sg163
F152.54
sg164
F151.27
sa(dp174
g159
F49482818.0
sg160
F150.25
sg161
F154.57
sg162
F149.71
sg163
F150.25
sg164
F153.6
sa(dp175
g159
F19904679.0
sg160
F155.47
sg161
F156.06
sg162
F154.72
sg163
F155.47
sg164
F155.94
sa(dp176
g159
F25700983.0
sg160
F155.7
sg161
F156.65
sg162
F155.05
sg163
F155.7
sg164
F156.01
sa(dp177
g159
F32221756.0
sg160
F156.1
sg161
F156.42
sg162
F154.67
sg163
F156.1
sg164
F154.7
sa(dp178
g159
F25596687.0
sg160
F153.95
sg161
F154.07
sg162
F152.31
sg163
F153.95
sg164
F152.45
sa(dp179
g159
F25670456.0
sg160
F153.26
sg161
F153.94
sg162
F152.11
sg163
F153.26
sg164
F153.63
sa(dp180
g159
F35942435.0
sg160
F153.99
sg161
F154.88
sg162
F153.45
sg163
F153.99
sg164
F153.87
sa(dp181
g159
F48339210.0
sg160
F153.01
sg161
F153.7
sg162
F149.03
sg163
F153.01
sg164
F149.03
sa(dp182
g159
F26787359.0
sg160
F148.96
sg161
F148.98
sg162
F146.76
sg163
F148.96
sg164
F146.76
sa(dp183
g159
F23275690.0
sg160
F146.53
sg161
F147.14
sg162
F145.81
sg163
F146.53
sg164
F146.52
sa(dp184
g159
F45142806.0
sg160
F147.06
sg161
F147.49
sg162
F144.27
sg163
F147.06
sg164
F145.59
sa(dp185
g159
F39752670.0
sg160
F147.51
sg161
F148.09
sg162
F146.84
sg163
F147.51
sg164
F147.54
sa(dp186
g159
F32818760.0
sg160
F146.58
sg161
F147.2
sg162
F144.96
sg163
F146.58
sg164
F145.1
sas.